target datalayout = "e-m:e-p270:32:32-p271:32:32-p272:64:64-i64:64-i128:128-f80:128-n8:16:32:64-S128"
target triple = "x86_64-unknown-linux-gnu"

%class.aiMatrix3x3t = type { float, float, float, float, float, float, float, float, float }

; Function Attrs: mustprogress nounwind uwtable
define linkonce_odr void @_ZSt4swapIfENSt9enable_ifIXsr6__and_ISt6__not_ISt15__is_tuple_likeIT_EESt21is_move_constructibleIS3_ESt18is_move_assignableIS3_EEE5valueEvE4typeERS3_SC_(ptr noundef nonnull align 4 dereferenceable(4) %__a, ptr noundef nonnull align 4 dereferenceable(4) %__b) #0 comdat {
entry:
  %__a.addr = alloca ptr, align 8
  %__b.addr = alloca ptr, align 8
  %__tmp = alloca float, align 4
  store ptr %__a, ptr %__a.addr, align 8
  store ptr %__b, ptr %__b.addr, align 8
  %0 = load ptr, ptr %__a.addr, align 8
  %1 = load float, ptr %0, align 4
  store float %1, ptr %__tmp, align 4
  %2 = load ptr, ptr %__b.addr, align 8
  %3 = load float, ptr %2, align 4
  %4 = load ptr, ptr %__a.addr, align 8
  store float %3, ptr %4, align 4
  %5 = load float, ptr %__tmp, align 4
  %6 = load ptr, ptr %__b.addr, align 8
  store float %5, ptr %6, align 4
  ret void
}

; Function Attrs: mustprogress nounwind uwtable
define linkonce_odr hidden noundef nonnull align 4 dereferenceable(36) ptr @_ZN12aiMatrix3x3tIfE9TransposeEv(ptr noundef nonnull align 4 dereferenceable(36) %this) #0 comdat align 2 {
entry:
  %this.addr = alloca ptr, align 8
  store ptr %this, ptr %this.addr, align 8
  %this1 = load ptr, ptr %this.addr, align 8
  %a2 = getelementptr inbounds %class.aiMatrix3x3t, ptr %this1, i32 0, i32 1
  %b1 = getelementptr inbounds %class.aiMatrix3x3t, ptr %this1, i32 0, i32 3
  call void @_ZSt4swapIfENSt9enable_ifIXsr6__and_ISt6__not_ISt15__is_tuple_likeIT_EESt21is_move_constructibleIS3_ESt18is_move_assignableIS3_EEE5valueEvE4typeERS3_SC_(ptr noundef nonnull align 4 dereferenceable(4) %a2, ptr noundef nonnull align 4 dereferenceable(4) %b1) #3
  %a3 = getelementptr inbounds %class.aiMatrix3x3t, ptr %this1, i32 0, i32 2
  %c1 = getelementptr inbounds %class.aiMatrix3x3t, ptr %this1, i32 0, i32 6
  call void @_ZSt4swapIfENSt9enable_ifIXsr6__and_ISt6__not_ISt15__is_tuple_likeIT_EESt21is_move_constructibleIS3_ESt18is_move_assignableIS3_EEE5valueEvE4typeERS3_SC_(ptr noundef nonnull align 4 dereferenceable(4) %a3, ptr noundef nonnull align 4 dereferenceable(4) %c1) #3
  %b3 = getelementptr inbounds %class.aiMatrix3x3t, ptr %this1, i32 0, i32 5
  %c2 = getelementptr inbounds %class.aiMatrix3x3t, ptr %this1, i32 0, i32 7
  call void @_ZSt4swapIfENSt9enable_ifIXsr6__and_ISt6__not_ISt15__is_tuple_likeIT_EESt21is_move_constructibleIS3_ESt18is_move_assignableIS3_EEE5valueEvE4typeERS3_SC_(ptr noundef nonnull align 4 dereferenceable(4) %b3, ptr noundef nonnull align 4 dereferenceable(4) %c2) #3
  ret ptr %this1
}

; Function Attrs: mustprogress uwtable
define void @aiTransposeMatrix3(ptr noundef %mat) #5 {
entry:
  %mat.addr = alloca ptr, align 8
  store ptr %mat, ptr %mat.addr, align 8
  %0 = load ptr, ptr %mat.addr, align 8
  %call = call noundef nonnull align 4 dereferenceable(36) ptr @_ZN12aiMatrix3x3tIfE9TransposeEv(ptr noundef nonnull align 4 dereferenceable(36) %0)
  ret void
}