; Function Attrs: mustprogress nofree norecurse nosync nounwind willreturn memory(argmem: readwrite) uwtable
define void @aiTransposeMatrix3(ptr nocapture noundef %mat) local_unnamed_addr #11 {
entry:
  %a2.i = getelementptr inbounds i8, ptr %mat, i64 4
  %b1.i = getelementptr inbounds i8, ptr %mat, i64 12
  %0 = load float, ptr %a2.i, align 4
  %1 = load float, ptr %b1.i, align 4
  store float %1, ptr %a2.i, align 4
  store float %0, ptr %b1.i, align 4
  %a3.i = getelementptr inbounds i8, ptr %mat, i64 8
  %c1.i = getelementptr inbounds i8, ptr %mat, i64 24
  %2 = load float, ptr %a3.i, align 4
  %3 = load float, ptr %c1.i, align 4
  store float %3, ptr %a3.i, align 4
  store float %2, ptr %c1.i, align 4
  %b3.i = getelementptr inbounds i8, ptr %mat, i64 20
  %c2.i = getelementptr inbounds i8, ptr %mat, i64 28
  %4 = load float, ptr %b3.i, align 4
  %5 = load float, ptr %c2.i, align 4
  store float %5, ptr %b3.i, align 4
  store float %4, ptr %c2.i, align 4
  ret void
}